(lp0
S'poi'
p1
aS'bonus'
p2
aS'director_fees'
p3
aS'exercised_stock_options'
p4
aS'expenses'
p5
aS'from_messages'
p6
aS'from_poi_to_this_person'
p7
aS'loan_advances'
p8
aS'shared_receipt_with_poi'
p9
aS'to_messages'
p10
a.